SF:/home/gspecian/Projetos/rust_todo_app/src/auth.rs
FN:27,_RNCNvXNtCsglBMZhj7PNx_13rust_todo_app4authNtB4_6ClaimsINtNtCs1dv3UqBKGTc_9axum_core7extract16FromRequestPartsNtB6_8AppStateE18from_request_parts0B6_
FN:24,_RNvXNtCsglBMZhj7PNx_13rust_todo_app4authNtB2_6ClaimsINtNtCs1dv3UqBKGTc_9axum_core7extract16FromRequestPartsNtB4_8AppStateE18from_request_parts
FN:110,_RNvNtNtCsglBMZhj7PNx_13rust_todo_app4auth5testss_21test_claims_structure
FN:87,_RNvNtNtCsglBMZhj7PNx_13rust_todo_app4auth5testss_27test_generate_token_success
FN:123,_RNvNtNtCsglBMZhj7PNx_13rust_todo_app4auth5testss_35test_generate_token_different_users
FN:55,_RNvNtCsglBMZhj7PNx_13rust_todo_app4auth14generate_token
FNDA:0,_RNCNvXNtCsglBMZhj7PNx_13rust_todo_app4authNtB4_6ClaimsINtNtCs1dv3UqBKGTc_9axum_core7extract16FromRequestPartsNtB6_8AppStateE18from_request_parts0B6_
FNDA:0,_RNvXNtCsglBMZhj7PNx_13rust_todo_app4authNtB2_6ClaimsINtNtCs1dv3UqBKGTc_9axum_core7extract16FromRequestPartsNtB4_8AppStateE18from_request_parts
FNDA:1,_RNvNtNtCsglBMZhj7PNx_13rust_todo_app4auth5testss_21test_claims_structure
FNDA:1,_RNvNtNtCsglBMZhj7PNx_13rust_todo_app4auth5testss_27test_generate_token_success
FNDA:1,_RNvNtNtCsglBMZhj7PNx_13rust_todo_app4auth5testss_35test_generate_token_different_users
FNDA:3,_RNvNtCsglBMZhj7PNx_13rust_todo_app4auth14generate_token
FNF:6
FNH:4
DA:24,0
DA:25,0
DA:26,0
DA:27,0
DA:29,0
DA:30,0
DA:31,0
DA:32,0
DA:33,0
DA:34,0
DA:39,0
DA:40,0
DA:41,0
DA:42,0
DA:43,0
DA:44,0
DA:45,0
DA:46,0
DA:47,0
DA:51,0
DA:52,0
DA:55,3
DA:56,3
DA:57,3
DA:58,3
DA:59,3
DA:60,3
DA:61,3
DA:62,3
DA:63,3
DA:64,3
DA:65,3
DA:66,3
DA:68,3
DA:69,3
DA:70,0
DA:71,0
DA:72,0
DA:73,0
DA:74,0
DA:78,3
DA:79,3
DA:87,1
DA:88,1
DA:89,1
DA:90,1
DA:91,1
DA:93,1
DA:94,1
DA:96,1
DA:97,1
DA:100,1
DA:101,1
DA:102,1
DA:103,1
DA:105,1
DA:106,1
DA:107,1
DA:110,1
DA:111,1
DA:112,1
DA:113,1
DA:114,1
DA:115,1
DA:117,1
DA:118,1
DA:119,1
DA:120,1
DA:123,1
DA:124,1
DA:125,1
DA:126,1
DA:128,1
DA:129,1
DA:131,1
DA:134,1
DA:135,1
DA:137,1
DA:138,1
DA:139,1
DA:140,1
DA:141,1
DA:142,1
DA:144,1
DA:145,1
DA:146,1
BRF:0
BRH:0
LF:87
LH:60
end_of_record
SF:/home/gspecian/Projetos/rust_todo_app/src/main.rs
FN:50,_RNCNCNvCsglBMZhj7PNx_13rust_todo_app4main00B5_
FN:66,_RNCNCNvCsglBMZhj7PNx_13rust_todo_app4main0s0_0B5_
FN:67,_RNCNCNvCsglBMZhj7PNx_13rust_todo_app4main0s1_0B5_
FN:71,_RNCNCNvCsglBMZhj7PNx_13rust_todo_app4main0s2_0B5_
FN:79,_RNCNCNvCsglBMZhj7PNx_13rust_todo_app4main0s3_0B5_
FN:98,_RNCNCNvCsglBMZhj7PNx_13rust_todo_app4main0s4_0B5_
FN:106,_RNCNCNvCsglBMZhj7PNx_13rust_todo_app4main0s5_0B5_
FN:60,_RNCNCNvCsglBMZhj7PNx_13rust_todo_app4main0s_0B5_
FN:42,_RNCNvCsglBMZhj7PNx_13rust_todo_app4main0B3_
FN:42,_RNvCsglBMZhj7PNx_13rust_todo_app4main
FNDA:0,_RNCNCNvCsglBMZhj7PNx_13rust_todo_app4main00B5_
FNDA:0,_RNCNCNvCsglBMZhj7PNx_13rust_todo_app4main0s0_0B5_
FNDA:0,_RNCNCNvCsglBMZhj7PNx_13rust_todo_app4main0s1_0B5_
FNDA:0,_RNCNCNvCsglBMZhj7PNx_13rust_todo_app4main0s2_0B5_
FNDA:0,_RNCNCNvCsglBMZhj7PNx_13rust_todo_app4main0s3_0B5_
FNDA:0,_RNCNCNvCsglBMZhj7PNx_13rust_todo_app4main0s4_0B5_
FNDA:0,_RNCNCNvCsglBMZhj7PNx_13rust_todo_app4main0s5_0B5_
FNDA:0,_RNCNCNvCsglBMZhj7PNx_13rust_todo_app4main0s_0B5_
FNDA:0,_RNCNvCsglBMZhj7PNx_13rust_todo_app4main0B3_
FNDA:0,_RNvCsglBMZhj7PNx_13rust_todo_app4main
FNF:10
FNH:0
DA:42,0
DA:44,0
DA:47,0
DA:50,0
DA:51,0
DA:52,0
DA:53,0
DA:56,0
DA:57,0
DA:58,0
DA:59,0
DA:60,0
DA:61,0
DA:62,0
DA:63,0
DA:66,0
DA:67,0
DA:68,0
DA:71,0
DA:72,0
DA:73,0
DA:74,0
DA:75,0
DA:76,0
DA:77,0
DA:78,0
DA:79,0
DA:80,0
DA:83,0
DA:84,0
DA:85,0
DA:86,0
DA:87,0
DA:88,0
DA:91,0
DA:92,0
DA:93,0
DA:94,0
DA:95,0
DA:98,0
DA:99,0
DA:100,0
DA:101,0
DA:103,0
DA:106,0
DA:107,0
DA:108,0
DA:109,0
DA:111,0
DA:112,0
BRF:0
BRH:0
LF:63
LH:0
end_of_record
SF:/home/gspecian/Projetos/rust_todo_app/src/modules/common.rs
FN:17,_RINvMNtNtCsglBMZhj7PNx_13rust_todo_app7modules6commonNtB3_13ErrorResponse3newNtNtCs8Ty2CzGA6U3_5alloc6string6StringEB7_
FN:17,_RINvMNtNtCsglBMZhj7PNx_13rust_todo_app7modules6commonNtB3_13ErrorResponse3newReEB7_
FN:25,_RNvXs_NtNtCsglBMZhj7PNx_13rust_todo_app7modules6commonNtB4_13ErrorResponseNtNtNtCs1dv3UqBKGTc_9axum_core8response13into_response12IntoResponse13into_response
FN:41,_RNvNtNtNtCsglBMZhj7PNx_13rust_todo_app7modules6common5testss_27test_error_response_new_str
FN:35,_RNvNtNtNtCsglBMZhj7PNx_13rust_todo_app7modules6common5testss_30test_error_response_new_string
FN:55,_RNvNtNtNtCsglBMZhj7PNx_13rust_todo_app7modules6common5testss_33test_error_response_into_response
FN:48,_RNvNtNtNtCsglBMZhj7PNx_13rust_todo_app7modules6common5testss_36test_error_response_new_string_owned
FNDA:1,_RINvMNtNtCsglBMZhj7PNx_13rust_todo_app7modules6commonNtB3_13ErrorResponse3newNtNtCs8Ty2CzGA6U3_5alloc6string6StringEB7_
FNDA:3,_RINvMNtNtCsglBMZhj7PNx_13rust_todo_app7modules6commonNtB3_13ErrorResponse3newReEB7_
FNDA:1,_RNvXs_NtNtCsglBMZhj7PNx_13rust_todo_app7modules6commonNtB4_13ErrorResponseNtNtNtCs1dv3UqBKGTc_9axum_core8response13into_response12IntoResponse13into_response
FNDA:1,_RNvNtNtNtCsglBMZhj7PNx_13rust_todo_app7modules6common5testss_27test_error_response_new_str
FNDA:1,_RNvNtNtNtCsglBMZhj7PNx_13rust_todo_app7modules6common5testss_30test_error_response_new_string
FNDA:1,_RNvNtNtNtCsglBMZhj7PNx_13rust_todo_app7modules6common5testss_33test_error_response_into_response
FNDA:1,_RNvNtNtNtCsglBMZhj7PNx_13rust_todo_app7modules6common5testss_36test_error_response_new_string_owned
FNF:6
FNH:6
DA:17,4
DA:18,4
DA:19,4
DA:20,4
DA:21,4
DA:25,1
DA:26,1
DA:27,1
DA:35,1
DA:36,1
DA:37,1
DA:38,1
DA:41,1
DA:42,1
DA:43,1
DA:44,1
DA:45,1
DA:48,1
DA:49,1
DA:50,1
DA:51,1
DA:52,1
DA:55,1
DA:56,1
DA:57,1
DA:58,1
DA:59,1
BRF:0
BRH:0
LF:27
LH:27
end_of_record
SF:/home/gspecian/Projetos/rust_todo_app/src/modules/health/interfaces/health_response.rs
FN:53,_RNvNtNtNtNtNtCsglBMZhj7PNx_13rust_todo_app7modules6health10interfaces15health_response5testss_27test_ping_response_creation
FN:29,_RNvNtNtNtNtNtCsglBMZhj7PNx_13rust_todo_app7modules6health10interfaces15health_response5testss_29test_health_response_creation
FN:63,_RNvNtNtNtNtNtCsglBMZhj7PNx_13rust_todo_app7modules6health10interfaces15health_response5testss_32test_ping_response_serialization
FN:37,_RNvNtNtNtNtNtCsglBMZhj7PNx_13rust_todo_app7modules6health10interfaces15health_response5testss_34test_health_response_serialization
FN:74,_RNvNtNtNtNtNtCsglBMZhj7PNx_13rust_todo_app7modules6health10interfaces15health_response5testss_34test_ping_response_deserialization
FN:46,_RNvNtNtNtNtNtCsglBMZhj7PNx_13rust_todo_app7modules6health10interfaces15health_response5testss_36test_health_response_deserialization
FNDA:1,_RNvNtNtNtNtNtCsglBMZhj7PNx_13rust_todo_app7modules6health10interfaces15health_response5testss_27test_ping_response_creation
FNDA:1,_RNvNtNtNtNtNtCsglBMZhj7PNx_13rust_todo_app7modules6health10interfaces15health_response5testss_29test_health_response_creation
FNDA:1,_RNvNtNtNtNtNtCsglBMZhj7PNx_13rust_todo_app7modules6health10interfaces15health_response5testss_32test_ping_response_serialization
FNDA:1,_RNvNtNtNtNtNtCsglBMZhj7PNx_13rust_todo_app7modules6health10interfaces15health_response5testss_34test_health_response_serialization
FNDA:1,_RNvNtNtNtNtNtCsglBMZhj7PNx_13rust_todo_app7modules6health10interfaces15health_response5testss_34test_ping_response_deserialization
FNDA:1,_RNvNtNtNtNtNtCsglBMZhj7PNx_13rust_todo_app7modules6health10interfaces15health_response5testss_36test_health_response_deserialization
FNF:6
FNH:6
DA:29,1
DA:30,1
DA:31,1
DA:32,1
DA:33,1
DA:34,1
DA:37,1
DA:38,1
DA:39,1
DA:40,1
DA:41,1
DA:42,1
DA:43,1
DA:46,1
DA:47,1
DA:48,1
DA:49,1
DA:50,1
DA:53,1
DA:54,1
DA:55,1
DA:56,1
DA:57,1
DA:58,1
DA:59,1
DA:60,1
DA:63,1
DA:64,1
DA:65,1
DA:66,1
DA:67,1
DA:68,1
DA:69,1
DA:70,1
DA:71,1
DA:74,1
DA:75,1
DA:76,1
DA:77,1
DA:78,1
DA:79,1
BRF:0
BRH:0
LF:41
LH:41
end_of_record
SF:/home/gspecian/Projetos/rust_todo_app/src/modules/health/routes.rs
FN:14,_RNvNtNtNtCsglBMZhj7PNx_13rust_todo_app7modules6health6routes13health_routes
FNDA:0,_RNvNtNtNtCsglBMZhj7PNx_13rust_todo_app7modules6health6routes13health_routes
FNF:1
FNH:0
DA:14,0
DA:15,0
DA:16,0
DA:17,0
DA:18,0
DA:19,0
BRF:0
BRH:0
LF:6
LH:0
end_of_record
SF:/home/gspecian/Projetos/rust_todo_app/src/modules/health/service.rs
FN:81,_RNCNvNtNtNtCsglBMZhj7PNx_13rust_todo_app7modules6health7service10test_login0B9_
FN:27,_RNCNvNtNtNtCsglBMZhj7PNx_13rust_todo_app7modules6health7service12health_check0B9_
FN:46,_RNCNvNtNtNtCsglBMZhj7PNx_13rust_todo_app7modules6health7service4ping0B9_
FN:81,_RNvNtNtNtCsglBMZhj7PNx_13rust_todo_app7modules6health7service10test_login
FN:27,_RNvNtNtNtCsglBMZhj7PNx_13rust_todo_app7modules6health7service12health_check
FN:46,_RNvNtNtNtCsglBMZhj7PNx_13rust_todo_app7modules6health7service4ping
FNDA:0,_RNCNvNtNtNtCsglBMZhj7PNx_13rust_todo_app7modules6health7service10test_login0B9_
FNDA:0,_RNCNvNtNtNtCsglBMZhj7PNx_13rust_todo_app7modules6health7service12health_check0B9_
FNDA:0,_RNCNvNtNtNtCsglBMZhj7PNx_13rust_todo_app7modules6health7service4ping0B9_
FNDA:0,_RNvNtNtNtCsglBMZhj7PNx_13rust_todo_app7modules6health7service10test_login
FNDA:0,_RNvNtNtNtCsglBMZhj7PNx_13rust_todo_app7modules6health7service12health_check
FNDA:0,_RNvNtNtNtCsglBMZhj7PNx_13rust_todo_app7modules6health7service4ping
FNF:6
FNH:0
DA:27,0
DA:28,0
DA:29,0
DA:30,0
DA:31,0
DA:32,0
DA:46,0
DA:47,0
DA:48,0
DA:49,0
DA:50,0
DA:51,0
DA:52,0
DA:53,0
DA:55,0
DA:56,0
DA:57,0
DA:58,0
DA:59,0
DA:60,0
DA:61,0
DA:64,0
DA:81,0
DA:82,0
DA:84,0
DA:85,0
DA:86,0
DA:87,0
DA:88,0
DA:89,0
DA:90,0
DA:92,0
DA:93,0
DA:94,0
DA:95,0
DA:96,0
DA:97,0
DA:98,0
DA:101,0
BRF:0
BRH:0
LF:42
LH:0
end_of_record
SF:/home/gspecian/Projetos/rust_todo_app/src/modules/user/interfaces.rs
FN:161,_RNvNtNtNtNtCsglBMZhj7PNx_13rust_todo_app7modules4user10interfaces5testss_22test_new_user_response
FN:171,_RNvNtNtNtNtCsglBMZhj7PNx_13rust_todo_app7modules4user10interfaces5testss_24test_fetch_user_response
FN:190,_RNvNtNtNtNtCsglBMZhj7PNx_13rust_todo_app7modules4user10interfaces5testss_24test_update_user_request
FN:214,_RNvNtNtNtNtCsglBMZhj7PNx_13rust_todo_app7modules4user10interfaces5testss_26test_validated_user_signup
FN:203,_RNvNtNtNtNtCsglBMZhj7PNx_13rust_todo_app7modules4user10interfaces5testss_28test_update_password_request
FN:137,_RNvNtNtNtNtCsglBMZhj7PNx_13rust_todo_app7modules4user10interfaces5testss_30test_user_signup_serialization
FN:153,_RNvNtNtNtNtCsglBMZhj7PNx_13rust_todo_app7modules4user10interfaces5testss_34test_login_request_deserialization
FNDA:1,_RNvNtNtNtNtCsglBMZhj7PNx_13rust_todo_app7modules4user10interfaces5testss_22test_new_user_response
FNDA:1,_RNvNtNtNtNtCsglBMZhj7PNx_13rust_todo_app7modules4user10interfaces5testss_24test_fetch_user_response
FNDA:1,_RNvNtNtNtNtCsglBMZhj7PNx_13rust_todo_app7modules4user10interfaces5testss_24test_update_user_request
FNDA:1,_RNvNtNtNtNtCsglBMZhj7PNx_13rust_todo_app7modules4user10interfaces5testss_26test_validated_user_signup
FNDA:1,_RNvNtNtNtNtCsglBMZhj7PNx_13rust_todo_app7modules4user10interfaces5testss_28test_update_password_request
FNDA:1,_RNvNtNtNtNtCsglBMZhj7PNx_13rust_todo_app7modules4user10interfaces5testss_30test_user_signup_serialization
FNDA:1,_RNvNtNtNtNtCsglBMZhj7PNx_13rust_todo_app7modules4user10interfaces5testss_34test_login_request_deserialization
FNF:7
FNH:7
DA:137,1
DA:138,1
DA:139,1
DA:140,1
DA:141,1
DA:142,1
DA:143,1
DA:144,1
DA:145,1
DA:147,1
DA:148,1
DA:149,1
DA:150,1
DA:153,1
DA:154,1
DA:155,1
DA:156,1
DA:157,1
DA:158,1
DA:161,1
DA:162,1
DA:163,1
DA:164,1
DA:165,1
DA:166,1
DA:167,1
DA:168,1
DA:171,1
DA:172,1
DA:173,1
DA:174,1
DA:175,1
DA:176,1
DA:177,1
DA:178,1
DA:179,1
DA:180,1
DA:181,1
DA:182,1
DA:184,1
DA:185,1
DA:186,1
DA:187,1
DA:190,1
DA:191,1
DA:192,1
DA:193,1
DA:194,1
DA:195,1
DA:197,1
DA:198,1
DA:199,1
DA:200,1
DA:203,1
DA:204,1
DA:205,1
DA:206,1
DA:207,1
DA:209,1
DA:210,1
DA:211,1
DA:214,1
DA:215,1
DA:216,1
DA:217,1
DA:218,1
DA:219,1
DA:220,1
DA:221,1
DA:222,1
DA:224,1
DA:225,1
DA:226,1
BRF:0
BRH:0
LF:73
LH:73
end_of_record
SF:/home/gspecian/Projetos/rust_todo_app/src/modules/user/repository.rs
FN:85,_RNCNCNvMNtNtNtCsglBMZhj7PNx_13rust_todo_app7modules4user10repositoryNtB6_14UserRepository10fetch_user00Bc_
FN:88,_RNCNCNvMNtNtNtCsglBMZhj7PNx_13rust_todo_app7modules4user10repositoryNtB6_14UserRepository10fetch_user0s0_0Bc_
FN:74,_RNCNCNvMNtNtNtCsglBMZhj7PNx_13rust_todo_app7modules4user10repositoryNtB6_14UserRepository10fetch_user0s1_0Bc_
FN:86,_RNCNCNvMNtNtNtCsglBMZhj7PNx_13rust_todo_app7modules4user10repositoryNtB6_14UserRepository10fetch_user0s_0Bc_
FN:130,_RNCNCNvMNtNtNtCsglBMZhj7PNx_13rust_todo_app7modules4user10repositoryNtB6_14UserRepository11delete_user00Bc_
FN:105,_RNCNCNvMNtNtNtCsglBMZhj7PNx_13rust_todo_app7modules4user10repositoryNtB6_14UserRepository11update_user00Bc_
FN:118,_RNCNCNvMNtNtNtCsglBMZhj7PNx_13rust_todo_app7modules4user10repositoryNtB6_14UserRepository15update_password00Bc_
FN:71,_RNCNvMNtNtNtCsglBMZhj7PNx_13rust_todo_app7modules4user10repositoryNtB4_14UserRepository10fetch_user0Ba_
FN:41,_RNCNvMNtNtNtCsglBMZhj7PNx_13rust_todo_app7modules4user10repositoryNtB4_14UserRepository11create_user0Ba_
FN:127,_RNCNvMNtNtNtCsglBMZhj7PNx_13rust_todo_app7modules4user10repositoryNtB4_14UserRepository11delete_user0Ba_
FN:99,_RNCNvMNtNtNtCsglBMZhj7PNx_13rust_todo_app7modules4user10repositoryNtB4_14UserRepository11update_user0Ba_
FN:114,_RNCNvMNtNtNtCsglBMZhj7PNx_13rust_todo_app7modules4user10repositoryNtB4_14UserRepository15update_password0Ba_
FN:56,_RNCNvMNtNtNtCsglBMZhj7PNx_13rust_todo_app7modules4user10repositoryNtB4_14UserRepository18get_user_for_login0Ba_
FN:31,_RNCNvMNtNtNtCsglBMZhj7PNx_13rust_todo_app7modules4user10repositoryNtB4_14UserRepository20exists_user_by_email0Ba_
FN:19,_RNCNvMNtNtNtCsglBMZhj7PNx_13rust_todo_app7modules4user10repositoryNtB4_14UserRepository23exists_user_by_username0Ba_
FN:71,_RNvMNtNtNtCsglBMZhj7PNx_13rust_todo_app7modules4user10repositoryNtB2_14UserRepository10fetch_user
FN:41,_RNvMNtNtNtCsglBMZhj7PNx_13rust_todo_app7modules4user10repositoryNtB2_14UserRepository11create_user
FN:127,_RNvMNtNtNtCsglBMZhj7PNx_13rust_todo_app7modules4user10repositoryNtB2_14UserRepository11delete_user
FN:93,_RNvMNtNtNtCsglBMZhj7PNx_13rust_todo_app7modules4user10repositoryNtB2_14UserRepository11update_user
FN:114,_RNvMNtNtNtCsglBMZhj7PNx_13rust_todo_app7modules4user10repositoryNtB2_14UserRepository15update_password
FN:56,_RNvMNtNtNtCsglBMZhj7PNx_13rust_todo_app7modules4user10repositoryNtB2_14UserRepository18get_user_for_login
FN:31,_RNvMNtNtNtCsglBMZhj7PNx_13rust_todo_app7modules4user10repositoryNtB2_14UserRepository20exists_user_by_email
FN:19,_RNvMNtNtNtCsglBMZhj7PNx_13rust_todo_app7modules4user10repositoryNtB2_14UserRepository23exists_user_by_username
FN:14,_RNvMNtNtNtCsglBMZhj7PNx_13rust_todo_app7modules4user10repositoryNtB2_14UserRepository3new
FNDA:0,_RNCNCNvMNtNtNtCsglBMZhj7PNx_13rust_todo_app7modules4user10repositoryNtB6_14UserRepository10fetch_user00Bc_
FNDA:0,_RNCNCNvMNtNtNtCsglBMZhj7PNx_13rust_todo_app7modules4user10repositoryNtB6_14UserRepository10fetch_user0s0_0Bc_
FNDA:0,_RNCNCNvMNtNtNtCsglBMZhj7PNx_13rust_todo_app7modules4user10repositoryNtB6_14UserRepository10fetch_user0s1_0Bc_
FNDA:0,_RNCNCNvMNtNtNtCsglBMZhj7PNx_13rust_todo_app7modules4user10repositoryNtB6_14UserRepository10fetch_user0s_0Bc_
FNDA:0,_RNCNCNvMNtNtNtCsglBMZhj7PNx_13rust_todo_app7modules4user10repositoryNtB6_14UserRepository11delete_user00Bc_
FNDA:0,_RNCNCNvMNtNtNtCsglBMZhj7PNx_13rust_todo_app7modules4user10repositoryNtB6_14UserRepository11update_user00Bc_
FNDA:0,_RNCNCNvMNtNtNtCsglBMZhj7PNx_13rust_todo_app7modules4user10repositoryNtB6_14UserRepository15update_password00Bc_
FNDA:0,_RNCNvMNtNtNtCsglBMZhj7PNx_13rust_todo_app7modules4user10repositoryNtB4_14UserRepository10fetch_user0Ba_
FNDA:0,_RNCNvMNtNtNtCsglBMZhj7PNx_13rust_todo_app7modules4user10repositoryNtB4_14UserRepository11create_user0Ba_
FNDA:0,_RNCNvMNtNtNtCsglBMZhj7PNx_13rust_todo_app7modules4user10repositoryNtB4_14UserRepository11delete_user0Ba_
FNDA:0,_RNCNvMNtNtNtCsglBMZhj7PNx_13rust_todo_app7modules4user10repositoryNtB4_14UserRepository11update_user0Ba_
FNDA:0,_RNCNvMNtNtNtCsglBMZhj7PNx_13rust_todo_app7modules4user10repositoryNtB4_14UserRepository15update_password0Ba_
FNDA:0,_RNCNvMNtNtNtCsglBMZhj7PNx_13rust_todo_app7modules4user10repositoryNtB4_14UserRepository18get_user_for_login0Ba_
FNDA:0,_RNCNvMNtNtNtCsglBMZhj7PNx_13rust_todo_app7modules4user10repositoryNtB4_14UserRepository20exists_user_by_email0Ba_
FNDA:0,_RNCNvMNtNtNtCsglBMZhj7PNx_13rust_todo_app7modules4user10repositoryNtB4_14UserRepository23exists_user_by_username0Ba_
FNDA:0,_RNvMNtNtNtCsglBMZhj7PNx_13rust_todo_app7modules4user10repositoryNtB2_14UserRepository10fetch_user
FNDA:0,_RNvMNtNtNtCsglBMZhj7PNx_13rust_todo_app7modules4user10repositoryNtB2_14UserRepository11create_user
FNDA:0,_RNvMNtNtNtCsglBMZhj7PNx_13rust_todo_app7modules4user10repositoryNtB2_14UserRepository11delete_user
FNDA:0,_RNvMNtNtNtCsglBMZhj7PNx_13rust_todo_app7modules4user10repositoryNtB2_14UserRepository11update_user
FNDA:0,_RNvMNtNtNtCsglBMZhj7PNx_13rust_todo_app7modules4user10repositoryNtB2_14UserRepository15update_password
FNDA:0,_RNvMNtNtNtCsglBMZhj7PNx_13rust_todo_app7modules4user10repositoryNtB2_14UserRepository18get_user_for_login
FNDA:0,_RNvMNtNtNtCsglBMZhj7PNx_13rust_todo_app7modules4user10repositoryNtB2_14UserRepository20exists_user_by_email
FNDA:0,_RNvMNtNtNtCsglBMZhj7PNx_13rust_todo_app7modules4user10repositoryNtB2_14UserRepository23exists_user_by_username
FNDA:0,_RNvMNtNtNtCsglBMZhj7PNx_13rust_todo_app7modules4user10repositoryNtB2_14UserRepository3new
FNF:24
FNH:0
DA:14,0
DA:15,0
DA:16,0
DA:19,0
DA:20,0
DA:24,0
DA:25,0
DA:27,0
DA:28,0
DA:31,0
DA:32,0
DA:33,0
DA:34,0
DA:35,0
DA:37,0
DA:38,0
DA:41,0
DA:42,0
DA:50,0
DA:52,0
DA:53,0
DA:56,0
DA:57,0
DA:59,0
DA:61,0
DA:62,0
DA:64,0
DA:65,0
DA:66,0
DA:67,0
DA:68,0
DA:71,0
DA:72,0
DA:74,0
DA:76,0
DA:77,0
DA:80,0
DA:81,0
DA:82,0
DA:83,0
DA:84,0
DA:85,0
DA:86,0
DA:87,0
DA:88,0
DA:90,0
DA:93,0
DA:94,0
DA:95,0
DA:96,0
DA:97,0
DA:98,0
DA:99,0
DA:100,0
DA:105,0
DA:107,0
DA:108,0
DA:110,0
DA:111,0
DA:114,0
DA:115,0
DA:118,0
DA:120,0
DA:121,0
DA:123,0
DA:124,0
DA:127,0
DA:128,0
DA:130,0
DA:132,0
DA:133,0
DA:135,0
DA:136,0
BRF:0
BRH:0
LF:88
LH:0
end_of_record
SF:/home/gspecian/Projetos/rust_todo_app/src/modules/user/routes.rs
FN:121,_RNCNvNtNtNtCsglBMZhj7PNx_13rust_todo_app7modules4user6routes16fetch_user_route0B9_
FN:81,_RNCNvNtNtNtCsglBMZhj7PNx_13rust_todo_app7modules4user6routes16login_user_route0B9_
FN:50,_RNCNvNtNtNtCsglBMZhj7PNx_13rust_todo_app7modules4user6routes17create_user_route0B9_
FN:229,_RNCNvNtNtNtCsglBMZhj7PNx_13rust_todo_app7modules4user6routes17delete_user_route0B9_
FN:157,_RNCNvNtNtNtCsglBMZhj7PNx_13rust_todo_app7modules4user6routes17update_user_route0B9_
FN:194,_RNCNvNtNtNtCsglBMZhj7PNx_13rust_todo_app7modules4user6routes21update_password_route0B9_
FN:25,_RNvNtNtNtCsglBMZhj7PNx_13rust_todo_app7modules4user6routes11user_routes
FN:118,_RNvNtNtNtCsglBMZhj7PNx_13rust_todo_app7modules4user6routes16fetch_user_route
FN:78,_RNvNtNtNtCsglBMZhj7PNx_13rust_todo_app7modules4user6routes16login_user_route
FN:47,_RNvNtNtNtCsglBMZhj7PNx_13rust_todo_app7modules4user6routes17create_user_route
FN:226,_RNvNtNtNtCsglBMZhj7PNx_13rust_todo_app7modules4user6routes17delete_user_route
FN:153,_RNvNtNtNtCsglBMZhj7PNx_13rust_todo_app7modules4user6routes17update_user_route
FN:190,_RNvNtNtNtCsglBMZhj7PNx_13rust_todo_app7modules4user6routes21update_password_route
FNDA:0,_RNCNvNtNtNtCsglBMZhj7PNx_13rust_todo_app7modules4user6routes16fetch_user_route0B9_
FNDA:0,_RNCNvNtNtNtCsglBMZhj7PNx_13rust_todo_app7modules4user6routes16login_user_route0B9_
FNDA:0,_RNCNvNtNtNtCsglBMZhj7PNx_13rust_todo_app7modules4user6routes17create_user_route0B9_
FNDA:0,_RNCNvNtNtNtCsglBMZhj7PNx_13rust_todo_app7modules4user6routes17delete_user_route0B9_
FNDA:0,_RNCNvNtNtNtCsglBMZhj7PNx_13rust_todo_app7modules4user6routes17update_user_route0B9_
FNDA:0,_RNCNvNtNtNtCsglBMZhj7PNx_13rust_todo_app7modules4user6routes21update_password_route0B9_
FNDA:0,_RNvNtNtNtCsglBMZhj7PNx_13rust_todo_app7modules4user6routes11user_routes
FNDA:0,_RNvNtNtNtCsglBMZhj7PNx_13rust_todo_app7modules4user6routes16fetch_user_route
FNDA:0,_RNvNtNtNtCsglBMZhj7PNx_13rust_todo_app7modules4user6routes16login_user_route
FNDA:0,_RNvNtNtNtCsglBMZhj7PNx_13rust_todo_app7modules4user6routes17create_user_route
FNDA:0,_RNvNtNtNtCsglBMZhj7PNx_13rust_todo_app7modules4user6routes17delete_user_route
FNDA:0,_RNvNtNtNtCsglBMZhj7PNx_13rust_todo_app7modules4user6routes17update_user_route
FNDA:0,_RNvNtNtNtCsglBMZhj7PNx_13rust_todo_app7modules4user6routes21update_password_route
FNF:13
FNH:0
DA:25,0
DA:26,0
DA:27,0
DA:28,0
DA:29,0
DA:30,0
DA:31,0
DA:32,0
DA:33,0
DA:47,0
DA:48,0
DA:49,0
DA:50,0
DA:51,0
DA:52,0
DA:54,0
DA:55,0
DA:56,0
DA:57,0
DA:58,0
DA:59,0
DA:60,0
DA:61,0
DA:62,0
DA:64,0
DA:78,0
DA:79,0
DA:80,0
DA:81,0
DA:82,0
DA:83,0
DA:85,0
DA:87,0
DA:88,0
DA:89,0
DA:90,0
DA:91,0
DA:93,0
DA:95,0
DA:96,0
DA:97,0
DA:98,0
DA:99,0
DA:100,0
DA:101,0
DA:102,0
DA:104,0
DA:118,0
DA:119,0
DA:120,0
DA:121,0
DA:122,0
DA:123,0
DA:125,0
DA:127,0
DA:128,0
DA:129,0
DA:130,0
DA:131,0
DA:132,0
DA:133,0
DA:134,0
DA:135,0
DA:137,0
DA:153,0
DA:154,0
DA:155,0
DA:156,0
DA:157,0
DA:158,0
DA:159,0
DA:161,0
DA:162,0
DA:163,0
DA:165,0
DA:166,0
DA:167,0
DA:168,0
DA:169,0
DA:170,0
DA:171,0
DA:172,0
DA:174,0
DA:190,0
DA:191,0
DA:192,0
DA:193,0
DA:194,0
DA:195,0
DA:196,0
DA:198,0
DA:199,0
DA:200,0
DA:202,0
DA:203,0
DA:204,0
DA:205,0
DA:206,0
DA:207,0
DA:208,0
DA:209,0
DA:211,0
DA:226,0
DA:227,0
DA:228,0
DA:229,0
DA:230,0
DA:231,0
DA:233,0
DA:234,0
DA:235,0
DA:236,0
DA:237,0
DA:238,0
DA:239,0
DA:240,0
DA:241,0
DA:243,0
BRF:0
BRH:0
LF:124
LH:0
end_of_record
SF:/home/gspecian/Projetos/rust_todo_app/src/modules/user/service.rs
FN:256,_RNCNCNvMNtNtNtCsglBMZhj7PNx_13rust_todo_app7modules4user7serviceNtB6_11UserService15update_password00Bc_
FN:265,_RNCNCNvMNtNtNtCsglBMZhj7PNx_13rust_todo_app7modules4user7serviceNtB6_11UserService15update_password0s_0Bc_
FN:170,_RNCNvMNtNtNtCsglBMZhj7PNx_13rust_todo_app7modules4user7serviceNtB4_11UserService10fetch_user0Ba_
FN:118,_RNCNvMNtNtNtCsglBMZhj7PNx_13rust_todo_app7modules4user7serviceNtB4_11UserService10login_user0Ba_
FN:42,_RNCNvMNtNtNtCsglBMZhj7PNx_13rust_todo_app7modules4user7serviceNtB4_11UserService11create_user0Ba_
FN:295,_RNCNvMNtNtNtCsglBMZhj7PNx_13rust_todo_app7modules4user7serviceNtB4_11UserService11delete_user0Ba_
FN:187,_RNCNvMNtNtNtCsglBMZhj7PNx_13rust_todo_app7modules4user7serviceNtB4_11UserService11update_user0Ba_
FN:219,_RNCNvMNtNtNtCsglBMZhj7PNx_13rust_todo_app7modules4user7serviceNtB4_11UserService15update_password0Ba_
FN:170,_RNvMNtNtNtCsglBMZhj7PNx_13rust_todo_app7modules4user7serviceNtB2_11UserService10fetch_user
FN:113,_RNvMNtNtNtCsglBMZhj7PNx_13rust_todo_app7modules4user7serviceNtB2_11UserService10login_user
FN:39,_RNvMNtNtNtCsglBMZhj7PNx_13rust_todo_app7modules4user7serviceNtB2_11UserService11create_user
FN:295,_RNvMNtNtNtCsglBMZhj7PNx_13rust_todo_app7modules4user7serviceNtB2_11UserService11delete_user
FN:183,_RNvMNtNtNtCsglBMZhj7PNx_13rust_todo_app7modules4user7serviceNtB2_11UserService11update_user
FN:215,_RNvMNtNtNtCsglBMZhj7PNx_13rust_todo_app7modules4user7serviceNtB2_11UserService15update_password
FN:34,_RNvMNtNtNtCsglBMZhj7PNx_13rust_todo_app7modules4user7serviceNtB2_11UserService3new
FNDA:0,_RNCNCNvMNtNtNtCsglBMZhj7PNx_13rust_todo_app7modules4user7serviceNtB6_11UserService15update_password00Bc_
FNDA:0,_RNCNCNvMNtNtNtCsglBMZhj7PNx_13rust_todo_app7modules4user7serviceNtB6_11UserService15update_password0s_0Bc_
FNDA:0,_RNCNvMNtNtNtCsglBMZhj7PNx_13rust_todo_app7modules4user7serviceNtB4_11UserService10fetch_user0Ba_
FNDA:0,_RNCNvMNtNtNtCsglBMZhj7PNx_13rust_todo_app7modules4user7serviceNtB4_11UserService10login_user0Ba_
FNDA:0,_RNCNvMNtNtNtCsglBMZhj7PNx_13rust_todo_app7modules4user7serviceNtB4_11UserService11create_user0Ba_
FNDA:0,_RNCNvMNtNtNtCsglBMZhj7PNx_13rust_todo_app7modules4user7serviceNtB4_11UserService11delete_user0Ba_
FNDA:0,_RNCNvMNtNtNtCsglBMZhj7PNx_13rust_todo_app7modules4user7serviceNtB4_11UserService11update_user0Ba_
FNDA:0,_RNCNvMNtNtNtCsglBMZhj7PNx_13rust_todo_app7modules4user7serviceNtB4_11UserService15update_password0Ba_
FNDA:0,_RNvMNtNtNtCsglBMZhj7PNx_13rust_todo_app7modules4user7serviceNtB2_11UserService10fetch_user
FNDA:0,_RNvMNtNtNtCsglBMZhj7PNx_13rust_todo_app7modules4user7serviceNtB2_11UserService10login_user
FNDA:0,_RNvMNtNtNtCsglBMZhj7PNx_13rust_todo_app7modules4user7serviceNtB2_11UserService11create_user
FNDA:0,_RNvMNtNtNtCsglBMZhj7PNx_13rust_todo_app7modules4user7serviceNtB2_11UserService11delete_user
FNDA:0,_RNvMNtNtNtCsglBMZhj7PNx_13rust_todo_app7modules4user7serviceNtB2_11UserService11update_user
FNDA:0,_RNvMNtNtNtCsglBMZhj7PNx_13rust_todo_app7modules4user7serviceNtB2_11UserService15update_password
FNDA:0,_RNvMNtNtNtCsglBMZhj7PNx_13rust_todo_app7modules4user7serviceNtB2_11UserService3new
FNF:15
FNH:0
DA:34,0
DA:35,0
DA:36,0
DA:39,0
DA:40,0
DA:41,0
DA:42,0
DA:44,0
DA:45,0
DA:46,0
DA:47,0
DA:48,0
DA:49,0
DA:50,0
DA:52,0
DA:56,0
DA:57,0
DA:58,0
DA:59,0
DA:61,0
DA:62,0
DA:63,0
DA:67,0
DA:68,0
DA:69,0
DA:70,0
DA:72,0
DA:73,0
DA:74,0
DA:78,0
DA:79,0
DA:80,0
DA:81,0
DA:84,0
DA:85,0
DA:86,0
DA:89,0
DA:90,0
DA:91,0
DA:93,0
DA:94,0
DA:95,0
DA:96,0
DA:97,0
DA:98,0
DA:101,0
DA:103,0
DA:104,0
DA:105,0
DA:106,0
DA:107,0
DA:108,0
DA:110,0
DA:113,0
DA:114,0
DA:115,0
DA:116,0
DA:117,0
DA:118,0
DA:120,0
DA:121,0
DA:122,0
DA:123,0
DA:124,0
DA:125,0
DA:126,0
DA:127,0
DA:129,0
DA:132,0
DA:135,0
DA:136,0
DA:137,0
DA:138,0
DA:139,0
DA:143,0
DA:144,0
DA:145,0
DA:146,0
DA:147,0
DA:148,0
DA:149,0
DA:150,0
DA:153,0
DA:154,0
DA:155,0
DA:156,0
DA:157,0
DA:158,0
DA:159,0
DA:163,0
DA:164,0
DA:165,0
DA:166,0
DA:167,0
DA:170,0
DA:171,0
DA:172,0
DA:173,0
DA:174,0
DA:175,0
DA:179,0
DA:180,0
DA:183,0
DA:184,0
DA:185,0
DA:186,0
DA:187,0
DA:188,0
DA:189,0
DA:190,0
DA:191,0
DA:192,0
DA:194,0
DA:195,0
DA:196,0
DA:197,0
DA:198,0
DA:199,0
DA:200,0
DA:202,0
DA:204,0
DA:205,0
DA:206,0
DA:207,0
DA:208,0
DA:209,0
DA:212,0
DA:215,0
DA:216,0
DA:217,0
DA:218,0
DA:219,0
DA:220,0
DA:221,0
DA:222,0
DA:223,0
DA:224,0
DA:225,0
DA:226,0
DA:228,0
DA:232,0
DA:235,0
DA:236,0
DA:237,0
DA:238,0
DA:239,0
DA:240,0
DA:242,0
DA:243,0
DA:246,0
DA:249,0
DA:253,0
DA:254,0
DA:255,0
DA:256,0
DA:258,0
DA:259,0
DA:260,0
DA:262,0
DA:263,0
DA:264,0
DA:265,0
DA:266,0
DA:267,0
DA:268,0
DA:270,0
DA:271,0
DA:272,0
DA:273,0
DA:274,0
DA:275,0
DA:279,0
DA:280,0
DA:281,0
DA:282,0
DA:284,0
DA:285,0
DA:286,0
DA:287,0
DA:288,0
DA:289,0
DA:292,0
DA:295,0
DA:296,0
DA:297,0
DA:298,0
DA:299,0
DA:300,0
DA:301,0
DA:302,0
DA:305,0
BRF:0
BRH:0
LF:199
LH:0
end_of_record
SF:/home/gspecian/Projetos/rust_todo_app/src/swagger/doc_config.rs
FN:69,_RNvXNtNtCsglBMZhj7PNx_13rust_todo_app7swagger10doc_configNtB2_13SecurityAddonNtCshHKPKFBNjBG_6utoipa6Modify6modify
FNDA:0,_RNvXNtNtCsglBMZhj7PNx_13rust_todo_app7swagger10doc_configNtB2_13SecurityAddonNtCshHKPKFBNjBG_6utoipa6Modify6modify
FNF:1
FNH:0
DA:69,0
DA:70,0
DA:71,0
DA:72,0
DA:73,0
DA:74,0
DA:75,0
DA:76,0
DA:78,0
BRF:0
BRH:0
LF:9
LH:0
end_of_record
SF:/home/gspecian/Projetos/rust_todo_app/src/utils/fone_validation.rs
FN:12,_RNvNtNtNtCsglBMZhj7PNx_13rust_todo_app5utils15fone_validation5testss_24test_validate_fone_valid
FN:28,_RNvNtNtNtCsglBMZhj7PNx_13rust_todo_app5utils15fone_validation5testss_27test_validate_fone_too_long
FN:34,_RNvNtNtNtCsglBMZhj7PNx_13rust_todo_app5utils15fone_validation5testss_28test_validate_fone_no_digits
FN:21,_RNvNtNtNtCsglBMZhj7PNx_13rust_todo_app5utils15fone_validation5testss_28test_validate_fone_too_short
FN:40,_RNvNtNtNtCsglBMZhj7PNx_13rust_todo_app5utils15fone_validation5testss_32test_validate_fone_mixed_content
FN:1,_RNvNtNtCsglBMZhj7PNx_13rust_todo_app5utils15fone_validation13validate_fone
FNDA:1,_RNvNtNtNtCsglBMZhj7PNx_13rust_todo_app5utils15fone_validation5testss_24test_validate_fone_valid
FNDA:1,_RNvNtNtNtCsglBMZhj7PNx_13rust_todo_app5utils15fone_validation5testss_27test_validate_fone_too_long
FNDA:1,_RNvNtNtNtCsglBMZhj7PNx_13rust_todo_app5utils15fone_validation5testss_28test_validate_fone_no_digits
FNDA:1,_RNvNtNtNtCsglBMZhj7PNx_13rust_todo_app5utils15fone_validation5testss_28test_validate_fone_too_short
FNDA:1,_RNvNtNtNtCsglBMZhj7PNx_13rust_todo_app5utils15fone_validation5testss_32test_validate_fone_mixed_content
FNDA:14,_RNvNtNtCsglBMZhj7PNx_13rust_todo_app5utils15fone_validation13validate_fone
FNF:6
FNH:6
DA:1,14
DA:2,14
DA:3,14
DA:4,14
DA:5,14
DA:12,1
DA:13,1
DA:14,1
DA:15,1
DA:16,1
DA:17,1
DA:18,1
DA:21,1
DA:22,1
DA:23,1
DA:24,1
DA:25,1
DA:28,1
DA:29,1
DA:30,1
DA:31,1
DA:34,1
DA:35,1
DA:36,1
DA:37,1
DA:40,1
DA:41,1
DA:42,1
DA:43,1
BRF:0
BRH:0
LF:29
LH:29
end_of_record
SF:/home/gspecian/Projetos/rust_todo_app/src/utils/password.rs
FN:26,_RNvNtNtCsglBMZhj7PNx_13rust_todo_app5utils8password13hash_password
FN:17,_RNvNtNtCsglBMZhj7PNx_13rust_todo_app5utils8password17validate_password
FN:43,_RNvNtNtCsglBMZhj7PNx_13rust_todo_app5utils8password19password_validation
FN:101,_RNvNtNtNtCsglBMZhj7PNx_13rust_todo_app5utils8password5testss_26test_hash_password_success
FN:62,_RNvNtNtNtCsglBMZhj7PNx_13rust_todo_app5utils8password5testss_28test_validate_password_valid
FN:111,_RNvNtNtNtCsglBMZhj7PNx_13rust_todo_app5utils8password5testss_32test_password_validation_success
FN:69,_RNvNtNtNtCsglBMZhj7PNx_13rust_todo_app5utils8password5testss_32test_validate_password_too_short
FN:95,_RNvNtNtNtCsglBMZhj7PNx_13rust_todo_app5utils8password5testss_36test_validate_password_invalid_chars
FN:85,_RNvNtNtNtCsglBMZhj7PNx_13rust_todo_app5utils8password5testss_36test_validate_password_missing_digit
FN:126,_RNvNtNtNtCsglBMZhj7PNx_13rust_todo_app5utils8password5testss_37test_password_validation_invalid_hash
FN:90,_RNvNtNtNtCsglBMZhj7PNx_13rust_todo_app5utils8password5testss_38test_validate_password_missing_special
FN:118,_RNvNtNtNtCsglBMZhj7PNx_13rust_todo_app5utils8password5testss_39test_password_validation_wrong_password
FN:75,_RNvNtNtNtCsglBMZhj7PNx_13rust_todo_app5utils8password5testss_40test_validate_password_missing_lowercase
FN:80,_RNvNtNtNtCsglBMZhj7PNx_13rust_todo_app5utils8password5testss_40test_validate_password_missing_uppercase
FN:12,_RNCNvNtNtCsglBMZhj7PNx_13rust_todo_app5utils8password11DIGIT_REGEX0B7_
FN:13,_RNCNvNtNtCsglBMZhj7PNx_13rust_todo_app5utils8password13SPECIAL_REGEX0B7_
FN:10,_RNCNvNtNtCsglBMZhj7PNx_13rust_todo_app5utils8password15LOWERCASE_REGEX0B7_
FN:11,_RNCNvNtNtCsglBMZhj7PNx_13rust_todo_app5utils8password15UPPERCASE_REGEX0B7_
FN:15,_RNCNvNtNtCsglBMZhj7PNx_13rust_todo_app5utils8password17VALID_CHARS_REGEX0B7_
FNDA:3,_RNvNtNtCsglBMZhj7PNx_13rust_todo_app5utils8password13hash_password
FNDA:11,_RNvNtNtCsglBMZhj7PNx_13rust_todo_app5utils8password17validate_password
FNDA:4,_RNvNtNtCsglBMZhj7PNx_13rust_todo_app5utils8password19password_validation
FNDA:1,_RNvNtNtNtCsglBMZhj7PNx_13rust_todo_app5utils8password5testss_26test_hash_password_success
FNDA:1,_RNvNtNtNtCsglBMZhj7PNx_13rust_todo_app5utils8password5testss_28test_validate_password_valid
FNDA:1,_RNvNtNtNtCsglBMZhj7PNx_13rust_todo_app5utils8password5testss_32test_password_validation_success
FNDA:1,_RNvNtNtNtCsglBMZhj7PNx_13rust_todo_app5utils8password5testss_32test_validate_password_too_short
FNDA:1,_RNvNtNtNtCsglBMZhj7PNx_13rust_todo_app5utils8password5testss_36test_validate_password_invalid_chars
FNDA:1,_RNvNtNtNtCsglBMZhj7PNx_13rust_todo_app5utils8password5testss_36test_validate_password_missing_digit
FNDA:1,_RNvNtNtNtCsglBMZhj7PNx_13rust_todo_app5utils8password5testss_37test_password_validation_invalid_hash
FNDA:1,_RNvNtNtNtCsglBMZhj7PNx_13rust_todo_app5utils8password5testss_38test_validate_password_missing_special
FNDA:1,_RNvNtNtNtCsglBMZhj7PNx_13rust_todo_app5utils8password5testss_39test_password_validation_wrong_password
FNDA:1,_RNvNtNtNtCsglBMZhj7PNx_13rust_todo_app5utils8password5testss_40test_validate_password_missing_lowercase
FNDA:1,_RNvNtNtNtCsglBMZhj7PNx_13rust_todo_app5utils8password5testss_40test_validate_password_missing_uppercase
FNDA:1,_RNCNvNtNtCsglBMZhj7PNx_13rust_todo_app5utils8password11DIGIT_REGEX0B7_
FNDA:1,_RNCNvNtNtCsglBMZhj7PNx_13rust_todo_app5utils8password13SPECIAL_REGEX0B7_
FNDA:1,_RNCNvNtNtCsglBMZhj7PNx_13rust_todo_app5utils8password15LOWERCASE_REGEX0B7_
FNDA:1,_RNCNvNtNtCsglBMZhj7PNx_13rust_todo_app5utils8password15UPPERCASE_REGEX0B7_
FNDA:1,_RNCNvNtNtCsglBMZhj7PNx_13rust_todo_app5utils8password17VALID_CHARS_REGEX0B7_
FNF:19
FNH:19
DA:10,1
DA:11,1
DA:12,1
DA:13,1
DA:15,1
DA:17,11
DA:18,11
DA:19,9
DA:20,8
DA:21,7
DA:22,6
DA:23,5
DA:24,11
DA:26,3
DA:28,3
DA:31,3
DA:33,3
DA:34,3
DA:35,0
DA:36,0
DA:37,0
DA:40,3
DA:43,4
DA:44,4
DA:45,2
DA:46,2
DA:47,2
DA:48,2
DA:52,2
DA:53,2
DA:54,2
DA:55,4
DA:62,1
DA:63,1
DA:64,1
DA:65,1
DA:66,1
DA:69,1
DA:70,1
DA:71,1
DA:72,1
DA:75,1
DA:76,1
DA:77,1
DA:80,1
DA:81,1
DA:82,1
DA:85,1
DA:86,1
DA:87,1
DA:90,1
DA:91,1
DA:92,1
DA:95,1
DA:96,1
DA:97,1
DA:98,1
DA:101,1
DA:102,1
DA:103,1
DA:104,1
DA:105,1
DA:106,1
DA:107,1
DA:108,1
DA:111,1
DA:112,1
DA:113,1
DA:114,1
DA:115,1
DA:118,1
DA:119,1
DA:120,1
DA:121,1
DA:122,1
DA:123,1
DA:126,1
DA:127,1
DA:128,1
DA:129,1
BRF:0
BRH:0
LF:80
LH:77
end_of_record
SF:/home/gspecian/Projetos/rust_todo_app/src/utils/required_fields.rs
FN:4,_RINvNtNtCsglBMZhj7PNx_13rust_todo_app5utils15required_fields24validate_required_fieldsNtNtB2_5tests8TestDataNtB1o_17ValidatedTestDataEB6_
FN:10,_RNCINvNtNtCsglBMZhj7PNx_13rust_todo_app5utils15required_fields24validate_required_fieldsNtNtB4_5tests8TestDataNtB1q_17ValidatedTestDataE0B8_
FN:21,_RNCINvNtNtCsglBMZhj7PNx_13rust_todo_app5utils15required_fields24validate_required_fieldsNtNtB4_5tests8TestDataNtB1q_17ValidatedTestDataEs_0B8_
FN:45,_RNvNtNtNtCsglBMZhj7PNx_13rust_todo_app5utils15required_fields5testss_37test_validate_required_fields_success
FN:104,_RNvNtNtNtCsglBMZhj7PNx_13rust_todo_app5utils15required_fields5testss_41test_validate_required_fields_zero_number
FN:74,_RNvNtNtNtCsglBMZhj7PNx_13rust_todo_app5utils15required_fields5testss_42test_validate_required_fields_empty_string
FN:59,_RNvNtNtNtCsglBMZhj7PNx_13rust_todo_app5utils15required_fields5testss_43test_validate_required_fields_missing_field
FN:89,_RNvNtNtNtCsglBMZhj7PNx_13rust_todo_app5utils15required_fields5testss_47test_validate_required_fields_whitespace_string
FN:119,_RNvNtNtNtCsglBMZhj7PNx_13rust_todo_app5utils15required_fields5testss_48test_validate_required_fields_no_required_fields
FNDA:6,_RINvNtNtCsglBMZhj7PNx_13rust_todo_app5utils15required_fields24validate_required_fieldsNtNtB2_5tests8TestDataNtB1o_17ValidatedTestDataEB6_
FNDA:0,_RNCINvNtNtCsglBMZhj7PNx_13rust_todo_app5utils15required_fields24validate_required_fieldsNtNtB4_5tests8TestDataNtB1q_17ValidatedTestDataE0B8_
FNDA:0,_RNCINvNtNtCsglBMZhj7PNx_13rust_todo_app5utils15required_fields24validate_required_fieldsNtNtB4_5tests8TestDataNtB1q_17ValidatedTestDataEs_0B8_
FNDA:1,_RNvNtNtNtCsglBMZhj7PNx_13rust_todo_app5utils15required_fields5testss_37test_validate_required_fields_success
FNDA:1,_RNvNtNtNtCsglBMZhj7PNx_13rust_todo_app5utils15required_fields5testss_41test_validate_required_fields_zero_number
FNDA:1,_RNvNtNtNtCsglBMZhj7PNx_13rust_todo_app5utils15required_fields5testss_42test_validate_required_fields_empty_string
FNDA:1,_RNvNtNtNtCsglBMZhj7PNx_13rust_todo_app5utils15required_fields5testss_43test_validate_required_fields_missing_field
FNDA:1,_RNvNtNtNtCsglBMZhj7PNx_13rust_todo_app5utils15required_fields5testss_47test_validate_required_fields_whitespace_string
FNDA:1,_RNvNtNtNtCsglBMZhj7PNx_13rust_todo_app5utils15required_fields5testss_48test_validate_required_fields_no_required_fields
FNF:9
FNH:7
DA:4,6
DA:5,6
DA:6,6
DA:7,6
DA:9,6
DA:10,6
DA:12,11
DA:13,9
DA:14,7
DA:15,1
DA:16,1
DA:17,5
DA:21,2
DA:22,6
DA:45,1
DA:46,1
DA:47,1
DA:48,1
DA:49,1
DA:50,1
DA:51,1
DA:53,1
DA:54,1
DA:55,1
DA:56,1
DA:59,1
DA:60,1
DA:61,1
DA:62,1
DA:63,1
DA:64,1
DA:65,1
DA:67,1
DA:68,1
DA:69,1
DA:70,1
DA:71,1
DA:74,1
DA:75,1
DA:76,1
DA:77,1
DA:78,1
DA:79,1
DA:80,1
DA:82,1
DA:83,1
DA:84,1
DA:85,1
DA:86,1
DA:89,1
DA:90,1
DA:91,1
DA:92,1
DA:93,1
DA:94,1
DA:95,1
DA:97,1
DA:98,1
DA:99,1
DA:100,1
DA:101,1
DA:104,1
DA:105,1
DA:106,1
DA:107,1
DA:108,1
DA:109,1
DA:110,1
DA:112,1
DA:113,1
DA:114,1
DA:115,1
DA:116,1
DA:119,1
DA:120,1
DA:121,1
DA:122,1
DA:123,1
DA:124,1
DA:125,1
DA:127,1
DA:128,1
DA:129,1
BRF:0
BRH:0
LF:85
LH:83
end_of_record